; Function Attrs: nounwind uwtable
define void @Msat_SolverMarkLastClauseTypeA(ptr noundef readonly captures(none) %0) local_unnamed_addr #1 {
  %2 = getelementptr inbounds nuw i8, ptr %0, i64 8
  %3 = load ptr, ptr %2, align 8, !tbaa !40
  %4 = tail call i32 @Msat_ClauseVecReadSize(ptr noundef %3) #11
  %5 = add nsw i32 %4, -1
  %6 = tail call ptr @Msat_ClauseVecReadEntry(ptr noundef %3, i32 noundef %5) #11
  tail call void @Msat_ClauseSetTypeA(ptr noundef %6, i32 noundef 1) #11
  ret void
}